target datalayout = "e-m:e-p270:32:32-p271:32:32-p272:64:64-i64:64-i128:128-f80:128-n8:16:32:64-S128"
target triple = "x86_64-unknown-linux-gnu"

; Function Attrs: mustprogress nounwind uwtable
define noundef zeroext i1 @_ZN18OpenImageIO_v2_6_013wrap_periodicERiii(ptr noundef nonnull align 4 dereferenceable(4) %coord, i32 noundef %origin, i32 noundef %width) #4 {
entry:
  %coord.addr = alloca ptr, align 8
  %origin.addr = alloca i32, align 4
  %width.addr = alloca i32, align 4
  store ptr %coord, ptr %coord.addr, align 8
  store i32 %origin, ptr %origin.addr, align 4
  store i32 %width, ptr %width.addr, align 4
  %0 = load i32, ptr %origin.addr, align 4
  %1 = load ptr, ptr %coord.addr, align 8
  %2 = load i32, ptr %1, align 4
  %sub = sub nsw i32 %2, %0
  store i32 %sub, ptr %1, align 4
  %3 = load i32, ptr %width.addr, align 4
  %4 = load ptr, ptr %coord.addr, align 8
  %5 = load i32, ptr %4, align 4
  %rem = srem i32 %5, %3
  store i32 %rem, ptr %4, align 4
  %6 = load ptr, ptr %coord.addr, align 8
  %7 = load i32, ptr %6, align 4
  %cmp = icmp slt i32 %7, 0
  br i1 %cmp, label %if.then, label %if.end

if.then:                                          ; preds = %entry
  %8 = load i32, ptr %width.addr, align 4
  %9 = load ptr, ptr %coord.addr, align 8
  %10 = load i32, ptr %9, align 4
  %add = add nsw i32 %10, %8
  store i32 %add, ptr %9, align 4
  br label %if.end

if.end:                                           ; preds = %if.then, %entry
  %11 = load i32, ptr %origin.addr, align 4
  %12 = load ptr, ptr %coord.addr, align 8
  %13 = load i32, ptr %12, align 4
  %add1 = add nsw i32 %13, %11
  store i32 %add1, ptr %12, align 4
  ret i1 true
}