; Function Attrs: mustprogress nofree norecurse nosync nounwind willreturn memory(argmem: readwrite) uwtable
define noundef zeroext i1 @_ZN18OpenImageIO_v2_6_013wrap_periodicERiii(ptr nocapture noundef nonnull align 4 dereferenceable(4) %coord, i32 noundef %origin, i32 noundef %width) local_unnamed_addr #20 {
entry:
  %0 = load i32, ptr %coord, align 4
  %sub = sub nsw i32 %0, %origin
  %rem = srem i32 %sub, %width
  %cmp = icmp slt i32 %rem, 0
  %add = select i1 %cmp, i32 %width, i32 0
  %spec.select = add i32 %rem, %origin
  %add1 = add i32 %spec.select, %add
  store i32 %add1, ptr %coord, align 4
  ret i1 true
}